; Function Attrs: nounwind uwtable
define internal void @_fabric_response(i32 %0, i16 signext %1, ptr noundef %2) #0 {
  %4 = getelementptr inbounds nuw i8, ptr %2, i64 848
  %5 = load ptr, ptr %4, align 8, !tbaa !299
  %6 = getelementptr inbounds nuw i8, ptr %2, i64 512
  %7 = load ptr, ptr %6, align 8, !tbaa !315
  %8 = getelementptr inbounds nuw i8, ptr %2, i64 528
  %9 = load i64, ptr %8, align 8, !tbaa !314
  %10 = getelementptr inbounds nuw i8, ptr %2, i64 888
  %11 = load ptr, ptr %10, align 8, !tbaa !302
  tail call void %5(i32 noundef 0, ptr noundef %7, i64 noundef %9, ptr noundef %11, ptr noundef null, ptr noundef null) #19
  %12 = tail call i32 @pthread_mutex_lock(ptr noundef %2) #19
  %13 = icmp eq i32 %12, 35
  br i1 %13, label %14, label %pmix_obj_update.exit

14:                                               ; preds = %3
  %15 = tail call ptr @__errno_location() #22
  store i32 35, ptr %15, align 4, !tbaa !23
  tail call void @perror(ptr noundef nonnull @.str.86) #23
  tail call void @abort() #24
  unreachable

pmix_obj_update.exit:                             ; preds = %3
  %16 = getelementptr inbounds nuw i8, ptr %2, i64 48
  %17 = load i32, ptr %16, align 8, !tbaa !78
  %18 = add nsw i32 %17, -1
  store i32 %18, ptr %16, align 8, !tbaa !78
  %19 = tail call i32 @pthread_mutex_unlock(ptr noundef nonnull %2) #19
  %20 = icmp eq i32 %18, 0
  br i1 %20, label %21, label %35

21:                                               ; preds = %pmix_obj_update.exit
  %22 = getelementptr inbounds nuw i8, ptr %2, i64 40
  %23 = load ptr, ptr %22, align 8, !tbaa !77
  %24 = getelementptr inbounds nuw i8, ptr %23, i64 48
  %25 = load ptr, ptr %24, align 8, !tbaa !88
  %26 = load ptr, ptr %25, align 8, !tbaa !80
  %.not6.i = icmp eq ptr %26, null
  br i1 %.not6.i, label %pmix_obj_run_destructors.exit, label %.lr.ph.i

.lr.ph.i:                                         ; preds = %21, %.lr.ph.i
  %27 = phi ptr [ %29, %.lr.ph.i ], [ %26, %21 ]
  %.07.i = phi ptr [ %28, %.lr.ph.i ], [ %25, %21 ]
  tail call void %27(ptr noundef nonnull %2) #19
  %28 = getelementptr inbounds nuw i8, ptr %.07.i, i64 8
  %29 = load ptr, ptr %28, align 8, !tbaa !80
  %.not.i = icmp eq ptr %29, null
  br i1 %.not.i, label %pmix_obj_run_destructors.exit, label %.lr.ph.i, !llvm.loop !89

pmix_obj_run_destructors.exit:                    ; preds = %.lr.ph.i, %21
  %30 = getelementptr inbounds nuw i8, ptr %2, i64 96
  %31 = load ptr, ptr %30, align 8, !tbaa !90
  %.not = icmp eq ptr %31, null
  br i1 %.not, label %34, label %32

32:                                               ; preds = %pmix_obj_run_destructors.exit
  %33 = getelementptr inbounds nuw i8, ptr %2, i64 56
  tail call void %31(ptr noundef nonnull %33, ptr noundef nonnull %2) #19
  br label %35

34:                                               ; preds = %pmix_obj_run_destructors.exit
  tail call void @free(ptr noundef nonnull %2) #19
  br label %35

35:                                               ; preds = %32, %34, %pmix_obj_update.exit
  ret void
}